; Function Attrs: mustprogress uwtable
define void @_ZN5nblib20checkKernelSetupSimdENS_11SimdKernelsE(i32 noundef %0) local_unnamed_addr #3 personality ptr @__gxx_personality_v0 {
  %2 = alloca %"class.std::__cxx11::basic_string", align 8
  %3 = alloca %"class.std::allocator", align 1
  %4 = alloca %"class.std::__cxx11::basic_string", align 8
  %5 = alloca %"class.std::allocator", align 1
  %6 = icmp sgt i32 %0, 3
  %7 = icmp eq i32 %0, 0
  %or.cond = or i1 %6, %7
  br i1 %or.cond, label %8, label %23

8:                                                ; preds = %1
  %9 = tail call ptr @__cxa_allocate_exception(i64 40) #22
  call void @llvm.lifetime.start.p0(i64 32, ptr nonnull %2) #22
  call void @llvm.lifetime.start.p0(i64 1, ptr nonnull %3) #22
  invoke void @_ZNSt7__cxx1112basic_stringIcSt11char_traitsIcESaIcEEC2IS3_EEPKcRKS3_(ptr noundef nonnull align 8 dereferenceable(32) %2, ptr noundef nonnull @.str, ptr noundef nonnull align 1 dereferenceable(1) %3)
          to label %10 unwind label %_ZNSt7__cxx1112basic_stringIcSt11char_traitsIcESaIcEED2Ev.exit.thread

10:                                               ; preds = %8
  invoke void @_ZN5nblib14InputExceptionCI2NS_14NbLibExceptionEERKNSt7__cxx1112basic_stringIcSt11char_traitsIcESaIcEEE(ptr noundef nonnull align 8 dereferenceable(40) %9, ptr noundef nonnull align 8 dereferenceable(32) %2)
          to label %11 unwind label %13

11:                                               ; preds = %10
  invoke void @__cxa_throw(ptr nonnull %9, ptr nonnull @_ZTIN5nblib14InputExceptionE, ptr nonnull @_ZN5nblib14NbLibExceptionD2Ev) #23
          to label %42 unwind label %13

_ZNSt7__cxx1112basic_stringIcSt11char_traitsIcESaIcEED2Ev.exit.thread: ; preds = %8
  %12 = landingpad { ptr, i32 }
          cleanup
  call void @llvm.lifetime.end.p0(i64 1, ptr nonnull %3) #22
  call void @llvm.lifetime.end.p0(i64 32, ptr nonnull %2) #22
  br label %.sink.split

13:                                               ; preds = %11, %10
  %.011 = phi i1 [ false, %11 ], [ true, %10 ]
  %14 = landingpad { ptr, i32 }
          cleanup
  %15 = load ptr, ptr %2, align 8, !tbaa !12
  %16 = getelementptr inbounds nuw i8, ptr %2, i64 16
  %17 = icmp eq ptr %15, %16
  br i1 %17, label %_ZNKSt7__cxx1112basic_stringIcSt11char_traitsIcESaIcEE11_M_is_localEv.exit.thread.i.i, label %_ZNSt7__cxx1112basic_stringIcSt11char_traitsIcESaIcEED2Ev.exit

_ZNKSt7__cxx1112basic_stringIcSt11char_traitsIcESaIcEE11_M_is_localEv.exit.thread.i.i: ; preds = %13
  %18 = getelementptr inbounds nuw i8, ptr %2, i64 8
  %19 = load i64, ptr %18, align 8, !tbaa !18
  %20 = icmp ult i64 %19, 16
  call void @llvm.assume(i1 %20)
  call void @llvm.lifetime.end.p0(i64 1, ptr nonnull %3) #22
  call void @llvm.lifetime.end.p0(i64 32, ptr nonnull %2) #22
  br i1 %.011, label %.sink.split, label %41

_ZNSt7__cxx1112basic_stringIcSt11char_traitsIcESaIcEED2Ev.exit: ; preds = %13
  %21 = load i64, ptr %16, align 8, !tbaa !19
  %22 = add i64 %21, 1
  call void @_ZdlPvm(ptr noundef %15, i64 noundef %22) #24
  call void @llvm.lifetime.end.p0(i64 1, ptr nonnull %3) #22
  call void @llvm.lifetime.end.p0(i64 32, ptr nonnull %2) #22
  br i1 %.011, label %.sink.split, label %41

23:                                               ; preds = %1
  %24 = and i32 %0, -2
  %or.cond3 = icmp eq i32 %24, 2
  br i1 %or.cond3, label %25, label %40

25:                                               ; preds = %23
  %26 = tail call ptr @__cxa_allocate_exception(i64 40) #22
  call void @llvm.lifetime.start.p0(i64 32, ptr nonnull %4) #22
  call void @llvm.lifetime.start.p0(i64 1, ptr nonnull %5) #22
  invoke void @_ZNSt7__cxx1112basic_stringIcSt11char_traitsIcESaIcEEC2IS3_EEPKcRKS3_(ptr noundef nonnull align 8 dereferenceable(32) %4, ptr noundef nonnull @.str.1, ptr noundef nonnull align 1 dereferenceable(1) %5)
          to label %27 unwind label %_ZNSt7__cxx1112basic_stringIcSt11char_traitsIcESaIcEED2Ev.exit25.thread

27:                                               ; preds = %25
  invoke void @_ZN5nblib14InputExceptionCI2NS_14NbLibExceptionEERKNSt7__cxx1112basic_stringIcSt11char_traitsIcESaIcEEE(ptr noundef nonnull align 8 dereferenceable(40) %26, ptr noundef nonnull align 8 dereferenceable(32) %4)
          to label %28 unwind label %30

28:                                               ; preds = %27
  invoke void @__cxa_throw(ptr nonnull %26, ptr nonnull @_ZTIN5nblib14InputExceptionE, ptr nonnull @_ZN5nblib14NbLibExceptionD2Ev) #23
          to label %42 unwind label %30

_ZNSt7__cxx1112basic_stringIcSt11char_traitsIcESaIcEED2Ev.exit25.thread: ; preds = %25
  %29 = landingpad { ptr, i32 }
          cleanup
  call void @llvm.lifetime.end.p0(i64 1, ptr nonnull %5) #22
  call void @llvm.lifetime.end.p0(i64 32, ptr nonnull %4) #22
  br label %.sink.split

30:                                               ; preds = %28, %27
  %.0 = phi i1 [ false, %28 ], [ true, %27 ]
  %31 = landingpad { ptr, i32 }
          cleanup
  %32 = load ptr, ptr %4, align 8, !tbaa !12
  %33 = getelementptr inbounds nuw i8, ptr %4, i64 16
  %34 = icmp eq ptr %32, %33
  br i1 %34, label %_ZNKSt7__cxx1112basic_stringIcSt11char_traitsIcESaIcEE11_M_is_localEv.exit.thread.i.i24, label %_ZNSt7__cxx1112basic_stringIcSt11char_traitsIcESaIcEED2Ev.exit25

_ZNKSt7__cxx1112basic_stringIcSt11char_traitsIcESaIcEE11_M_is_localEv.exit.thread.i.i24: ; preds = %30
  %35 = getelementptr inbounds nuw i8, ptr %4, i64 8
  %36 = load i64, ptr %35, align 8, !tbaa !18
  %37 = icmp ult i64 %36, 16
  call void @llvm.assume(i1 %37)
  call void @llvm.lifetime.end.p0(i64 1, ptr nonnull %5) #22
  call void @llvm.lifetime.end.p0(i64 32, ptr nonnull %4) #22
  br i1 %.0, label %.sink.split, label %41

_ZNSt7__cxx1112basic_stringIcSt11char_traitsIcESaIcEED2Ev.exit25: ; preds = %30
  %38 = load i64, ptr %33, align 8, !tbaa !19
  %39 = add i64 %38, 1
  call void @_ZdlPvm(ptr noundef %32, i64 noundef %39) #24
  call void @llvm.lifetime.end.p0(i64 1, ptr nonnull %5) #22
  call void @llvm.lifetime.end.p0(i64 32, ptr nonnull %4) #22
  br i1 %.0, label %.sink.split, label %41

40:                                               ; preds = %23
  ret void

.sink.split:                                      ; preds = %_ZNSt7__cxx1112basic_stringIcSt11char_traitsIcESaIcEED2Ev.exit25, %_ZNSt7__cxx1112basic_stringIcSt11char_traitsIcESaIcEED2Ev.exit25.thread, %_ZNKSt7__cxx1112basic_stringIcSt11char_traitsIcESaIcEE11_M_is_localEv.exit.thread.i.i24, %_ZNSt7__cxx1112basic_stringIcSt11char_traitsIcESaIcEED2Ev.exit, %_ZNSt7__cxx1112basic_stringIcSt11char_traitsIcESaIcEED2Ev.exit.thread, %_ZNKSt7__cxx1112basic_stringIcSt11char_traitsIcESaIcEE11_M_is_localEv.exit.thread.i.i
  %.sink = phi ptr [ %9, %_ZNKSt7__cxx1112basic_stringIcSt11char_traitsIcESaIcEE11_M_is_localEv.exit.thread.i.i ], [ %9, %_ZNSt7__cxx1112basic_stringIcSt11char_traitsIcESaIcEED2Ev.exit.thread ], [ %9, %_ZNSt7__cxx1112basic_stringIcSt11char_traitsIcESaIcEED2Ev.exit ], [ %26, %_ZNKSt7__cxx1112basic_stringIcSt11char_traitsIcESaIcEE11_M_is_localEv.exit.thread.i.i24 ], [ %26, %_ZNSt7__cxx1112basic_stringIcSt11char_traitsIcESaIcEED2Ev.exit25.thread ], [ %26, %_ZNSt7__cxx1112basic_stringIcSt11char_traitsIcESaIcEED2Ev.exit25 ]
  %.pn20.pn.ph = phi { ptr, i32 } [ %14, %_ZNKSt7__cxx1112basic_stringIcSt11char_traitsIcESaIcEE11_M_is_localEv.exit.thread.i.i ], [ %12, %_ZNSt7__cxx1112basic_stringIcSt11char_traitsIcESaIcEED2Ev.exit.thread ], [ %14, %_ZNSt7__cxx1112basic_stringIcSt11char_traitsIcESaIcEED2Ev.exit ], [ %31, %_ZNKSt7__cxx1112basic_stringIcSt11char_traitsIcESaIcEE11_M_is_localEv.exit.thread.i.i24 ], [ %29, %_ZNSt7__cxx1112basic_stringIcSt11char_traitsIcESaIcEED2Ev.exit25.thread ], [ %31, %_ZNSt7__cxx1112basic_stringIcSt11char_traitsIcESaIcEED2Ev.exit25 ]
  call void @__cxa_free_exception(ptr %.sink) #22
  br label %41

41:                                               ; preds = %.sink.split, %_ZNKSt7__cxx1112basic_stringIcSt11char_traitsIcESaIcEE11_M_is_localEv.exit.thread.i.i24, %_ZNKSt7__cxx1112basic_stringIcSt11char_traitsIcESaIcEE11_M_is_localEv.exit.thread.i.i, %_ZNSt7__cxx1112basic_stringIcSt11char_traitsIcESaIcEED2Ev.exit25, %_ZNSt7__cxx1112basic_stringIcSt11char_traitsIcESaIcEED2Ev.exit
  %.pn20.pn = phi { ptr, i32 } [ %14, %_ZNSt7__cxx1112basic_stringIcSt11char_traitsIcESaIcEED2Ev.exit ], [ %31, %_ZNSt7__cxx1112basic_stringIcSt11char_traitsIcESaIcEED2Ev.exit25 ], [ %14, %_ZNKSt7__cxx1112basic_stringIcSt11char_traitsIcESaIcEE11_M_is_localEv.exit.thread.i.i ], [ %31, %_ZNKSt7__cxx1112basic_stringIcSt11char_traitsIcESaIcEE11_M_is_localEv.exit.thread.i.i24 ], [ %.pn20.pn.ph, %.sink.split ]
  resume { ptr, i32 } %.pn20.pn

42:                                               ; preds = %28, %11
  unreachable
}